target datalayout = "e-m:e-p270:32:32-p271:32:32-p272:64:64-i64:64-i128:128-f80:128-n8:16:32:64-S128"
target triple = "x86_64-pc-linux-gnu"

@slru_names = internal constant [8 x ptr] [ptr @.str, ptr @.str.1, ptr @.str.2, ptr @.str.3, ptr @.str.4, ptr @.str.5, ptr @.str.6, ptr @.str.7], align 16

; Function Attrs: nounwind uwtable
define dso_local ptr @pgstat_get_slru_name(i32 noundef %0) #0 {
  %2 = alloca ptr, align 8
  %3 = alloca i32, align 4
  store i32 %0, ptr %3, align 4
  %4 = load i32, ptr %3, align 4
  %5 = icmp slt i32 %4, 0
  br i1 %5, label %10, label %6

6:                                                ; preds = %1
  %7 = load i32, ptr %3, align 4
  %8 = sext i32 %7 to i64
  %9 = icmp uge i64 %8, 8
  br i1 %9, label %10, label %11

10:                                               ; preds = %6, %1
  store ptr null, ptr %2, align 8
  br label %16

11:                                               ; preds = %6
  %12 = load i32, ptr %3, align 4
  %13 = sext i32 %12 to i64
  %14 = getelementptr inbounds [8 x ptr], ptr @slru_names, i64 0, i64 %13
  %15 = load ptr, ptr %14, align 8
  store ptr %15, ptr %2, align 8
  br label %16

16:                                               ; preds = %11, %10
  %17 = load ptr, ptr %2, align 8
  ret ptr %17
}